; Function Attrs: nounwind sspstrong uwtable
define internal range(i64 1, 131072) i64 @addrinfo_afamily(i64 noundef %0) #0 {
  %2 = tail call ptr @rb_check_typeddata(i64 noundef %0, ptr noundef nonnull @addrinfo_type) #21
  %.not.i = icmp eq ptr %2, null
  br i1 %.not.i, label %3, label %get_addrinfo.exit

3:                                                ; preds = %1
  %4 = load i64, ptr @rb_eTypeError, align 8, !tbaa !35
  tail call void (i64, ptr, ...) @rb_raise(i64 noundef %4, ptr noundef nonnull @.str.101) #23
  unreachable

get_addrinfo.exit:                                ; preds = %1
  %5 = getelementptr inbounds nuw i8, ptr %2, i64 28
  %6 = load i32, ptr %5, align 4, !tbaa !118
  %7 = icmp ugt i32 %6, 1
  br i1 %7, label %8, label %ai_get_afamily.exit

8:                                                ; preds = %get_addrinfo.exit
  %9 = getelementptr inbounds nuw i8, ptr %2, i64 32
  %10 = load i16, ptr %9, align 2, !tbaa !91
  %11 = zext i16 %10 to i64
  %12 = shl nuw nsw i64 %11, 1
  %13 = or disjoint i64 %12, 1
  br label %ai_get_afamily.exit

ai_get_afamily.exit:                              ; preds = %get_addrinfo.exit, %8
  %.0.i.i = phi i64 [ %13, %8 ], [ 1, %get_addrinfo.exit ]
  ret i64 %.0.i.i
}